; Function Attrs: mustprogress nofree norecurse nosync nounwind willreturn memory(none) uwtable
define i32 @ubidi_getPairedBracket_77(i32 noundef %0) local_unnamed_addr #2 {
  %2 = icmp ult i32 %0, 55296
  br i1 %2, label %3, label %5

3:                                                ; preds = %1
  %4 = lshr i32 %0, 5
  br label %.sink.split

5:                                                ; preds = %1
  %6 = icmp ult i32 %0, 65536
  br i1 %6, label %7, label %12

7:                                                ; preds = %5
  %8 = icmp samesign ult i32 %0, 56320
  %9 = select i1 %8, i32 320, i32 0
  %10 = lshr i32 %0, 5
  %11 = add nuw nsw i32 %9, %10
  br label %.sink.split

12:                                               ; preds = %5
  %13 = icmp ugt i32 %0, 1114111
  br i1 %13, label %32, label %14

14:                                               ; preds = %12
  %15 = lshr i32 %0, 11
  %16 = zext nneg i32 %15 to i64
  %17 = getelementptr inbounds nuw i16, ptr @_ZL21ubidi_props_trieIndex, i64 %16
  %18 = getelementptr inbounds nuw i8, ptr %17, i64 4160
  %19 = load i16, ptr %18, align 2, !tbaa !20
  %20 = zext i16 %19 to i32
  %21 = lshr i32 %0, 5
  %22 = and i32 %21, 63
  %23 = add nuw nsw i32 %22, %20
  br label %.sink.split

.sink.split:                                      ; preds = %3, %14, %7
  %.sink24 = phi i32 [ %11, %7 ], [ %23, %14 ], [ %4, %3 ]
  %24 = zext nneg i32 %.sink24 to i64
  %25 = getelementptr inbounds nuw i16, ptr @_ZL21ubidi_props_trieIndex, i64 %24
  %26 = load i16, ptr %25, align 2, !tbaa !20
  %27 = zext i16 %26 to i32
  %28 = shl nuw nsw i32 %27, 2
  %29 = and i32 %0, 31
  %30 = add nuw nsw i32 %28, %29
  %31 = zext nneg i32 %30 to i64
  br label %32

32:                                               ; preds = %.sink.split, %12
  %33 = phi i64 [ 3796, %12 ], [ %31, %.sink.split ]
  %34 = getelementptr inbounds nuw i16, ptr @_ZL21ubidi_props_trieIndex, i64 %33
  %35 = load i16, ptr %34, align 2, !tbaa !20
  %36 = and i16 %35, 768
  %37 = icmp eq i16 %36, 0
  br i1 %37, label %_ZL9getMirrorit.exit, label %38

38:                                               ; preds = %32
  %39 = ashr i16 %35, 13
  %.not.i = icmp eq i16 %39, -4
  br i1 %.not.i, label %.preheader.i, label %40

40:                                               ; preds = %38
  %41 = sext i16 %39 to i32
  %42 = add nsw i32 %0, %41
  br label %_ZL9getMirrorit.exit

.preheader.i:                                     ; preds = %38, %53
  %indvars.iv.i = phi i64 [ %indvars.iv.next.i, %53 ], [ 0, %38 ]
  %43 = getelementptr inbounds nuw i32, ptr @_ZL19ubidi_props_mirrors, i64 %indvars.iv.i
  %44 = load i32, ptr %43, align 4, !tbaa !7
  %45 = and i32 %44, 2097151
  %46 = icmp eq i32 %0, %45
  br i1 %46, label %47, label %53

47:                                               ; preds = %.preheader.i
  %48 = lshr i32 %44, 21
  %49 = zext nneg i32 %48 to i64
  %50 = getelementptr inbounds nuw i32, ptr @_ZL19ubidi_props_mirrors, i64 %49
  %51 = load i32, ptr %50, align 4, !tbaa !7
  %52 = and i32 %51, 2097151
  br label %_ZL9getMirrorit.exit

53:                                               ; preds = %.preheader.i
  %54 = icmp slt i32 %0, %45
  %indvars.iv.next.i = add nuw nsw i64 %indvars.iv.i, 1
  %exitcond.not.i = icmp eq i64 %indvars.iv.next.i, 40
  %or.cond.i = select i1 %54, i1 true, i1 %exitcond.not.i
  br i1 %or.cond.i, label %_ZL9getMirrorit.exit, label %.preheader.i, !llvm.loop !22

_ZL9getMirrorit.exit:                             ; preds = %53, %47, %40, %32
  %.0 = phi i32 [ %0, %32 ], [ %42, %40 ], [ %52, %47 ], [ %0, %53 ]
  ret i32 %.0
}